target datalayout = "e-m:e-p270:32:32-p271:32:32-p272:64:64-i64:64-i128:128-f80:128-n8:16:32:64-S128"
target triple = "x86_64-pc-linux-gnu"

%"class.OpenColorIO_v2_5dev::ArrayT" = type { %"class.OpenColorIO_v2_5dev::ArrayBase", i64, i64, %"class.std::vector.11" }
%"class.OpenColorIO_v2_5dev::ArrayBase" = type { ptr }
%"class.std::vector.11" = type { %"struct.std::_Vector_base.12" }
%"struct.std::_Vector_base.12" = type { %"struct.std::_Vector_base<float, std::allocator<float>>::_Vector_impl" }
%"struct.std::_Vector_base<float, std::allocator<float>>::_Vector_impl" = type { %"struct.std::_Vector_base<float, std::allocator<float>>::_Vector_impl_data" }
%"struct.std::_Vector_base<float, std::allocator<float>>::_Vector_impl_data" = type { ptr, ptr, ptr }

; Function Attrs: mustprogress nounwind uwtable
define linkonce_odr hidden noundef nonnull align 4 dereferenceable(4) ptr @_ZNSt6vectorIfSaIfEEixEm(ptr noundef nonnull align 8 dereferenceable(24) %0, i64 noundef %1) #5 comdat align 2 {
  %3 = alloca ptr, align 8
  %4 = alloca i64, align 8
  store ptr %0, ptr %3, align 8, !tbaa !60
  store i64 %1, ptr %4, align 8, !tbaa !8
  %5 = load ptr, ptr %3, align 8
  %6 = getelementptr inbounds nuw %"struct.std::_Vector_base.12", ptr %5, i32 0, i32 0
  %7 = getelementptr inbounds nuw %"struct.std::_Vector_base<float, std::allocator<float>>::_Vector_impl_data", ptr %6, i32 0, i32 0
  %8 = load ptr, ptr %7, align 8, !tbaa !75
  %9 = load i64, ptr %4, align 8, !tbaa !8
  %10 = getelementptr inbounds nuw float, ptr %8, i64 %9
  ret ptr %10
}

; Function Attrs: inlinehint mustprogress nounwind uwtable
define linkonce_odr hidden noundef nonnull align 8 dereferenceable(24) ptr @_ZN19OpenColorIO_v2_5dev6ArrayTIfE9getValuesEv(ptr noundef nonnull align 8 dereferenceable(48) %0) #8 comdat align 2 {
  %2 = alloca ptr, align 8
  store ptr %0, ptr %2, align 8, !tbaa !73
  %3 = load ptr, ptr %2, align 8
  %4 = getelementptr inbounds nuw %"class.OpenColorIO_v2_5dev::ArrayT", ptr %3, i32 0, i32 3
  ret ptr %4
}

; Function Attrs: mustprogress nounwind uwtable
define linkonce_odr hidden noundef i64 @_ZNK19OpenColorIO_v2_5dev6ArrayTIfE21getMaxColorComponentsEv(ptr noundef nonnull align 8 dereferenceable(48) %0) #5 comdat align 2 {
  %2 = alloca ptr, align 8
  store ptr %0, ptr %2, align 8, !tbaa !73
  ret i64 3
}

; Function Attrs: mustprogress uwtable
define hidden void @_ZN19OpenColorIO_v2_5dev11Lut3DOpData10Lut3DArray6setRGBElllPf(ptr noundef nonnull align 8 dereferenceable(48) %0, i64 noundef %1, i64 noundef %2, i64 noundef %3, ptr noundef %4) #4 align 2 {
  %6 = alloca ptr, align 8
  %7 = alloca i64, align 8
  %8 = alloca i64, align 8
  %9 = alloca i64, align 8
  %10 = alloca ptr, align 8
  %11 = alloca i64, align 8
  %12 = alloca i64, align 8
  %13 = alloca ptr, align 8
  %14 = alloca i64, align 8
  store ptr %0, ptr %6, align 8, !tbaa !78
  store i64 %1, ptr %7, align 8, !tbaa !8
  store i64 %2, ptr %8, align 8, !tbaa !8
  store i64 %3, ptr %9, align 8, !tbaa !8
  store ptr %4, ptr %10, align 8, !tbaa !93
  %15 = load ptr, ptr %6, align 8
  call void @llvm.lifetime.start.p0(i64 8, ptr %11) #3
  %16 = load ptr, ptr %15, align 8, !tbaa !57
  %17 = getelementptr inbounds ptr, ptr %16, i64 4
  %18 = load ptr, ptr %17, align 8
  %19 = call noundef i64 %18(ptr noundef nonnull align 8 dereferenceable(48) %15)
  store i64 %19, ptr %11, align 8, !tbaa !8
  call void @llvm.lifetime.start.p0(i64 8, ptr %12) #3
  %20 = call noundef i64 @_ZNK19OpenColorIO_v2_5dev6ArrayTIfE21getMaxColorComponentsEv(ptr noundef nonnull align 8 dereferenceable(48) %15)
  store i64 %20, ptr %12, align 8, !tbaa !8
  call void @llvm.lifetime.start.p0(i64 8, ptr %13) #3
  %21 = call noundef nonnull align 8 dereferenceable(24) ptr @_ZN19OpenColorIO_v2_5dev6ArrayTIfE9getValuesEv(ptr noundef nonnull align 8 dereferenceable(48) %15)
  store ptr %21, ptr %13, align 8, !tbaa !60
  call void @llvm.lifetime.start.p0(i64 8, ptr %14) #3
  %22 = load i64, ptr %7, align 8, !tbaa !8
  %23 = load i64, ptr %11, align 8, !tbaa !8
  %24 = mul nsw i64 %22, %23
  %25 = load i64, ptr %11, align 8, !tbaa !8
  %26 = mul nsw i64 %24, %25
  %27 = load i64, ptr %8, align 8, !tbaa !8
  %28 = load i64, ptr %11, align 8, !tbaa !8
  %29 = mul nsw i64 %27, %28
  %30 = add nsw i64 %26, %29
  %31 = load i64, ptr %9, align 8, !tbaa !8
  %32 = add nsw i64 %30, %31
  %33 = load i64, ptr %12, align 8, !tbaa !8
  %34 = mul nsw i64 %32, %33
  store i64 %34, ptr %14, align 8, !tbaa !8
  %35 = load ptr, ptr %10, align 8, !tbaa !93
  %36 = getelementptr inbounds float, ptr %35, i64 0
  %37 = load float, ptr %36, align 4, !tbaa !82
  %38 = load ptr, ptr %13, align 8, !tbaa !60
  %39 = load i64, ptr %14, align 8, !tbaa !8
  %40 = call noundef nonnull align 4 dereferenceable(4) ptr @_ZNSt6vectorIfSaIfEEixEm(ptr noundef nonnull align 8 dereferenceable(24) %38, i64 noundef %39) #3
  store float %37, ptr %40, align 4, !tbaa !82
  %41 = load ptr, ptr %10, align 8, !tbaa !93
  %42 = getelementptr inbounds float, ptr %41, i64 1
  %43 = load float, ptr %42, align 4, !tbaa !82
  %44 = load ptr, ptr %13, align 8, !tbaa !60
  %45 = load i64, ptr %14, align 8, !tbaa !8
  %46 = add nsw i64 %45, 1
  store i64 %46, ptr %14, align 8, !tbaa !8
  %47 = call noundef nonnull align 4 dereferenceable(4) ptr @_ZNSt6vectorIfSaIfEEixEm(ptr noundef nonnull align 8 dereferenceable(24) %44, i64 noundef %46) #3
  store float %43, ptr %47, align 4, !tbaa !82
  %48 = load ptr, ptr %10, align 8, !tbaa !93
  %49 = getelementptr inbounds float, ptr %48, i64 2
  %50 = load float, ptr %49, align 4, !tbaa !82
  %51 = load ptr, ptr %13, align 8, !tbaa !60
  %52 = load i64, ptr %14, align 8, !tbaa !8
  %53 = add nsw i64 %52, 1
  store i64 %53, ptr %14, align 8, !tbaa !8
  %54 = call noundef nonnull align 4 dereferenceable(4) ptr @_ZNSt6vectorIfSaIfEEixEm(ptr noundef nonnull align 8 dereferenceable(24) %51, i64 noundef %53) #3
  store float %50, ptr %54, align 4, !tbaa !82
  call void @llvm.lifetime.end.p0(i64 8, ptr %14) #3
  call void @llvm.lifetime.end.p0(i64 8, ptr %13) #3
  call void @llvm.lifetime.end.p0(i64 8, ptr %12) #3
  call void @llvm.lifetime.end.p0(i64 8, ptr %11) #3
  ret void
}