; Function Attrs: mustprogress uwtable
define hidden void @_ZN19OpenColorIO_v2_5dev11Lut3DOpData10Lut3DArray6setRGBElllPf(ptr noundef nonnull align 8 dereferenceable(48) %0, i64 noundef %1, i64 noundef %2, i64 noundef %3, ptr noundef readonly captures(none) %4) local_unnamed_addr #3 align 2 {
  %6 = load ptr, ptr %0, align 8, !tbaa !50
  %7 = getelementptr inbounds nuw i8, ptr %6, i64 32
  %8 = load ptr, ptr %7, align 8
  %9 = tail call noundef i64 %8(ptr noundef nonnull align 8 dereferenceable(48) %0)
  %10 = getelementptr inbounds nuw i8, ptr %0, i64 24
  %11 = mul nsw i64 %9, %1
  %12 = add i64 %11, %2
  %13 = mul i64 %12, %9
  %14 = add nsw i64 %13, %3
  %15 = load float, ptr %4, align 4, !tbaa !92
  %16 = load ptr, ptr %10, align 8, !tbaa !81
  %.idx = mul i64 %14, 12
  %17 = getelementptr i8, ptr %16, i64 %.idx
  store float %15, ptr %17, align 4, !tbaa !92
  %18 = getelementptr inbounds nuw i8, ptr %4, i64 4
  %19 = load float, ptr %18, align 4, !tbaa !92
  %20 = getelementptr i8, ptr %17, i64 4
  store float %19, ptr %20, align 4, !tbaa !92
  %21 = getelementptr inbounds nuw i8, ptr %4, i64 8
  %22 = load float, ptr %21, align 4, !tbaa !92
  %23 = getelementptr i8, ptr %17, i64 8
  store float %22, ptr %23, align 4, !tbaa !92
  ret void
}